target datalayout = "e-m:e-p270:32:32-p271:32:32-p272:64:64-i64:64-i128:128-f80:128-n8:16:32:64-S128"
target triple = "x86_64-pc-linux-gnu"

@.str.14 = private unnamed_addr constant [30 x i8] c"../openssl/test/asynciotest.c\00", align 1
@cert = internal global ptr null, align 8
@privkey = internal global ptr null, align 8
@__const.test_asyncio.testdata = private unnamed_addr constant [10 x i8] c"Test data\00", align 1
@.str.19 = private unnamed_addr constant [124 x i8] c"create_ssl_ctx_pair(NULL, TLS_server_method(), TLS_client_method(), TLS1_VERSION, 0, &serverctx, &clientctx, cert, privkey)\00", align 1
@fragment = internal global i32 0, align 4
@.str.20 = private unnamed_addr constant [12 x i8] c"s_to_c_fbio\00", align 1
@.str.21 = private unnamed_addr constant [12 x i8] c"c_to_s_fbio\00", align 1
@.str.22 = private unnamed_addr constant [91 x i8] c"create_ssl_objects(serverctx, clientctx, &serverssl, &clientssl, s_to_c_fbio, c_to_s_fbio)\00", align 1
@.str.23 = private unnamed_addr constant [60 x i8] c"create_ssl_connection(serverssl, clientssl, SSL_ERROR_NONE)\00", align 1
@.str.24 = private unnamed_addr constant [61 x i8] c"ssl_error == SSL_ERROR_SYSCALL || ssl_error == SSL_ERROR_SSL\00", align 1
@.str.25 = private unnamed_addr constant [4 x i8] c"len\00", align 1
@.str.26 = private unnamed_addr constant [17 x i8] c"sizeof(testdata)\00", align 1
@.str.27 = private unnamed_addr constant [9 x i8] c"testdata\00", align 1
@.str.28 = private unnamed_addr constant [4 x i8] c"buf\00", align 1

; Function Attrs: nounwind uwtable
define internal i32 @test_asyncio(i32 noundef %0) #0 {
  %2 = alloca i32, align 4
  %3 = alloca i32, align 4
  %4 = alloca ptr, align 8
  %5 = alloca ptr, align 8
  %6 = alloca ptr, align 8
  %7 = alloca ptr, align 8
  %8 = alloca ptr, align 8
  %9 = alloca ptr, align 8
  %10 = alloca i32, align 4
  %11 = alloca i32, align 4
  %12 = alloca i64, align 8
  %13 = alloca i64, align 8
  %14 = alloca [10 x i8], align 1
  %15 = alloca [10 x i8], align 1
  %16 = alloca i32, align 4
  %17 = alloca i32, align 4
  %18 = alloca i32, align 4
  %19 = alloca i32, align 4
  store i32 %0, ptr %3, align 4, !tbaa !9
  call void @llvm.lifetime.start.p0(i64 8, ptr %4) #6
  store ptr null, ptr %4, align 8, !tbaa !11
  call void @llvm.lifetime.start.p0(i64 8, ptr %5) #6
  store ptr null, ptr %5, align 8, !tbaa !11
  call void @llvm.lifetime.start.p0(i64 8, ptr %6) #6
  store ptr null, ptr %6, align 8, !tbaa !13
  call void @llvm.lifetime.start.p0(i64 8, ptr %7) #6
  store ptr null, ptr %7, align 8, !tbaa !13
  call void @llvm.lifetime.start.p0(i64 8, ptr %8) #6
  store ptr null, ptr %8, align 8, !tbaa !15
  call void @llvm.lifetime.start.p0(i64 8, ptr %9) #6
  store ptr null, ptr %9, align 8, !tbaa !15
  call void @llvm.lifetime.start.p0(i64 4, ptr %10) #6
  store i32 0, ptr %10, align 4, !tbaa !9
  call void @llvm.lifetime.start.p0(i64 4, ptr %11) #6
  call void @llvm.lifetime.start.p0(i64 8, ptr %12) #6
  call void @llvm.lifetime.start.p0(i64 8, ptr %13) #6
  call void @llvm.lifetime.start.p0(i64 10, ptr %14) #6
  call void @llvm.memcpy.p0.p0.i64(ptr align 1 %14, ptr align 1 @__const.test_asyncio.testdata, i64 10, i1 false)
  call void @llvm.lifetime.start.p0(i64 10, ptr %15) #6
  %20 = call ptr @TLS_server_method()
  %21 = call ptr @TLS_client_method()
  %22 = load ptr, ptr @cert, align 8, !tbaa !4
  %23 = load ptr, ptr @privkey, align 8, !tbaa !4
  %24 = call i32 @create_ssl_ctx_pair(ptr noundef null, ptr noundef %20, ptr noundef %21, i32 noundef 769, i32 noundef 0, ptr noundef %4, ptr noundef %5, ptr noundef %22, ptr noundef %23)
  %25 = icmp ne i32 %24, 0
  %26 = zext i1 %25 to i32
  %27 = call i32 @test_true(ptr noundef @.str.14, i32 noundef 302, ptr noundef @.str.19, i32 noundef %26)
  %28 = icmp ne i32 %27, 0
  br i1 %28, label %30, label %29

29:                                               ; preds = %1
  br label %202

30:                                               ; preds = %1
  %31 = load i32, ptr %3, align 4, !tbaa !9
  %32 = icmp eq i32 %31, 1
  br i1 %32, label %33, label %34

33:                                               ; preds = %30
  store i32 1, ptr @fragment, align 4, !tbaa !9
  br label %34

34:                                               ; preds = %33, %30
  %35 = call ptr @bio_f_async_filter()
  %36 = call ptr @BIO_new(ptr noundef %35)
  store ptr %36, ptr %8, align 8, !tbaa !15
  %37 = call ptr @bio_f_async_filter()
  %38 = call ptr @BIO_new(ptr noundef %37)
  store ptr %38, ptr %9, align 8, !tbaa !15
  %39 = load ptr, ptr %8, align 8, !tbaa !15
  %40 = call i32 @test_ptr(ptr noundef @.str.14, i32 noundef 317, ptr noundef @.str.20, ptr noundef %39)
  %41 = icmp ne i32 %40, 0
  br i1 %41, label %42, label %46

42:                                               ; preds = %34
  %43 = load ptr, ptr %9, align 8, !tbaa !15
  %44 = call i32 @test_ptr(ptr noundef @.str.14, i32 noundef 318, ptr noundef @.str.21, ptr noundef %43)
  %45 = icmp ne i32 %44, 0
  br i1 %45, label %51, label %46

46:                                               ; preds = %42, %34
  %47 = load ptr, ptr %8, align 8, !tbaa !15
  %48 = call i32 @BIO_free(ptr noundef %47)
  %49 = load ptr, ptr %9, align 8, !tbaa !15
  %50 = call i32 @BIO_free(ptr noundef %49)
  br label %202

51:                                               ; preds = %42
  %52 = load ptr, ptr %4, align 8, !tbaa !11
  %53 = load ptr, ptr %5, align 8, !tbaa !11
  %54 = load ptr, ptr %8, align 8, !tbaa !15
  %55 = load ptr, ptr %9, align 8, !tbaa !15
  %56 = call i32 @create_ssl_objects(ptr noundef %52, ptr noundef %53, ptr noundef %6, ptr noundef %7, ptr noundef %54, ptr noundef %55)
  %57 = icmp ne i32 %56, 0
  %58 = zext i1 %57 to i32
  %59 = call i32 @test_true(ptr noundef @.str.14, i32 noundef 326, ptr noundef @.str.22, i32 noundef %58)
  %60 = icmp ne i32 %59, 0
  br i1 %60, label %61, label %69

61:                                               ; preds = %51
  %62 = load ptr, ptr %6, align 8, !tbaa !13
  %63 = load ptr, ptr %7, align 8, !tbaa !13
  %64 = call i32 @create_ssl_connection(ptr noundef %62, ptr noundef %63, i32 noundef 0)
  %65 = icmp ne i32 %64, 0
  %66 = zext i1 %65 to i32
  %67 = call i32 @test_true(ptr noundef @.str.14, i32 noundef 328, ptr noundef @.str.23, i32 noundef %66)
  %68 = icmp ne i32 %67, 0
  br i1 %68, label %70, label %69

69:                                               ; preds = %61, %51
  br label %202

70:                                               ; preds = %61
  store i64 0, ptr %13, align 8, !tbaa !17
  br label %71

71:                                               ; preds = %196, %70
  %72 = load i64, ptr %13, align 8, !tbaa !17
  %73 = icmp ult i64 %72, 2
  br i1 %73, label %74, label %199

74:                                               ; preds = %71
  call void @llvm.lifetime.start.p0(i64 4, ptr %16) #6
  store i32 -1, ptr %11, align 4, !tbaa !9
  store i64 0, ptr %12, align 8, !tbaa !17
  store i32 0, ptr %16, align 4, !tbaa !9
  br label %75

75:                                               ; preds = %123, %74
  %76 = load i32, ptr %16, align 4, !tbaa !9
  %77 = sext i32 %76 to i64
  %78 = icmp ne i64 %77, 10
  br i1 %78, label %79, label %82

79:                                               ; preds = %75
  %80 = load i64, ptr %12, align 8, !tbaa !17
  %81 = icmp ult i64 %80, 2
  br label %82

82:                                               ; preds = %79, %75
  %83 = phi i1 [ false, %75 ], [ %81, %79 ]
  br i1 %83, label %84, label %126

84:                                               ; preds = %82
  %85 = load ptr, ptr %7, align 8, !tbaa !13
  %86 = getelementptr inbounds [10 x i8], ptr %14, i64 0, i64 0
  %87 = load i32, ptr %16, align 4, !tbaa !9
  %88 = sext i32 %87 to i64
  %89 = getelementptr inbounds i8, ptr %86, i64 %88
  %90 = load i32, ptr %16, align 4, !tbaa !9
  %91 = sext i32 %90 to i64
  %92 = sub i64 10, %91
  %93 = trunc i64 %92 to i32
  %94 = call i32 @SSL_write(ptr noundef %85, ptr noundef %89, i32 noundef %93)
  store i32 %94, ptr %11, align 4, !tbaa !9
  %95 = load i32, ptr %11, align 4, !tbaa !9
  %96 = icmp sgt i32 %95, 0
  br i1 %96, label %97, label %101

97:                                               ; preds = %84
  %98 = load i32, ptr %11, align 4, !tbaa !9
  %99 = load i32, ptr %16, align 4, !tbaa !9
  %100 = add nsw i32 %99, %98
  store i32 %100, ptr %16, align 4, !tbaa !9
  br label %122

101:                                              ; preds = %84
  call void @llvm.lifetime.start.p0(i64 4, ptr %17) #6
  %102 = load ptr, ptr %7, align 8, !tbaa !13
  %103 = load i32, ptr %11, align 4, !tbaa !9
  %104 = call i32 @SSL_get_error(ptr noundef %102, i32 noundef %103)
  store i32 %104, ptr %17, align 4, !tbaa !9
  %105 = load i32, ptr %17, align 4, !tbaa !9
  %106 = icmp eq i32 %105, 5
  br i1 %106, label %110, label %107

107:                                              ; preds = %101
  %108 = load i32, ptr %17, align 4, !tbaa !9
  %109 = icmp eq i32 %108, 1
  br label %110

110:                                              ; preds = %107, %101
  %111 = phi i1 [ true, %101 ], [ %109, %107 ]
  %112 = zext i1 %111 to i32
  %113 = icmp ne i32 %112, 0
  %114 = zext i1 %113 to i32
  %115 = call i32 @test_false(ptr noundef @.str.14, i32 noundef 352, ptr noundef @.str.24, i32 noundef %114)
  %116 = icmp ne i32 %115, 0
  br i1 %116, label %118, label %117

117:                                              ; preds = %110
  store i32 2, ptr %18, align 4
  br label %119

118:                                              ; preds = %110
  store i32 0, ptr %18, align 4
  br label %119

119:                                              ; preds = %117, %118
  call void @llvm.lifetime.end.p0(i64 4, ptr %17) #6
  %120 = load i32, ptr %18, align 4
  switch i32 %120, label %193 [
    i32 0, label %121
  ]

121:                                              ; preds = %119
  br label %122

122:                                              ; preds = %121, %97
  br label %123

123:                                              ; preds = %122
  %124 = load i64, ptr %12, align 8, !tbaa !17
  %125 = add i64 %124, 1
  store i64 %125, ptr %12, align 8, !tbaa !17
  br label %75, !llvm.loop !19

126:                                              ; preds = %82
  %127 = load i32, ptr %16, align 4, !tbaa !9
  %128 = sext i32 %127 to i64
  %129 = call i32 @test_size_t_eq(ptr noundef @.str.14, i32 noundef 356, ptr noundef @.str.25, ptr noundef @.str.26, i64 noundef %128, i64 noundef 10)
  %130 = icmp ne i32 %129, 0
  br i1 %130, label %132, label %131

131:                                              ; preds = %126
  store i32 2, ptr %18, align 4
  br label %193

132:                                              ; preds = %126
  store i32 -1, ptr %11, align 4, !tbaa !9
  store i64 0, ptr %12, align 8, !tbaa !17
  store i32 0, ptr %16, align 4, !tbaa !9
  br label %133

133:                                              ; preds = %181, %132
  %134 = load i32, ptr %16, align 4, !tbaa !9
  %135 = sext i32 %134 to i64
  %136 = icmp ne i64 %135, 10
  br i1 %136, label %137, label %140

137:                                              ; preds = %133
  %138 = load i64, ptr %12, align 8, !tbaa !17
  %139 = icmp ult i64 %138, 100
  br label %140

140:                                              ; preds = %137, %133
  %141 = phi i1 [ false, %133 ], [ %139, %137 ]
  br i1 %141, label %142, label %184

142:                                              ; preds = %140
  %143 = load ptr, ptr %6, align 8, !tbaa !13
  %144 = getelementptr inbounds [10 x i8], ptr %15, i64 0, i64 0
  %145 = load i32, ptr %16, align 4, !tbaa !9
  %146 = sext i32 %145 to i64
  %147 = getelementptr inbounds i8, ptr %144, i64 %146
  %148 = load i32, ptr %16, align 4, !tbaa !9
  %149 = sext i32 %148 to i64
  %150 = sub i64 10, %149
  %151 = trunc i64 %150 to i32
  %152 = call i32 @SSL_read(ptr noundef %143, ptr noundef %147, i32 noundef %151)
  store i32 %152, ptr %11, align 4, !tbaa !9
  %153 = load i32, ptr %11, align 4, !tbaa !9
  %154 = icmp sgt i32 %153, 0
  br i1 %154, label %155, label %159

155:                                              ; preds = %142
  %156 = load i32, ptr %11, align 4, !tbaa !9
  %157 = load i32, ptr %16, align 4, !tbaa !9
  %158 = add nsw i32 %157, %156
  store i32 %158, ptr %16, align 4, !tbaa !9
  br label %180

159:                                              ; preds = %142
  call void @llvm.lifetime.start.p0(i64 4, ptr %19) #6
  %160 = load ptr, ptr %6, align 8, !tbaa !13
  %161 = load i32, ptr %11, align 4, !tbaa !9
  %162 = call i32 @SSL_get_error(ptr noundef %160, i32 noundef %161)
  store i32 %162, ptr %19, align 4, !tbaa !9
  %163 = load i32, ptr %19, align 4, !tbaa !9
  %164 = icmp eq i32 %163, 5
  br i1 %164, label %168, label %165

165:                                              ; preds = %159
  %166 = load i32, ptr %19, align 4, !tbaa !9
  %167 = icmp eq i32 %166, 1
  br label %168

168:                                              ; preds = %165, %159
  %169 = phi i1 [ true, %159 ], [ %167, %165 ]
  %170 = zext i1 %169 to i32
  %171 = icmp ne i32 %170, 0
  %172 = zext i1 %171 to i32
  %173 = call i32 @test_false(ptr noundef @.str.14, i32 noundef 373, ptr noundef @.str.24, i32 noundef %172)
  %174 = icmp ne i32 %173, 0
  br i1 %174, label %176, label %175

175:                                              ; preds = %168
  store i32 2, ptr %18, align 4
  br label %177

176:                                              ; preds = %168
  store i32 0, ptr %18, align 4
  br label %177

177:                                              ; preds = %175, %176
  call void @llvm.lifetime.end.p0(i64 4, ptr %19) #6
  %178 = load i32, ptr %18, align 4
  switch i32 %178, label %193 [
    i32 0, label %179
  ]

179:                                              ; preds = %177
  br label %180

180:                                              ; preds = %179, %155
  br label %181

181:                                              ; preds = %180
  %182 = load i64, ptr %12, align 8, !tbaa !17
  %183 = add i64 %182, 1
  store i64 %183, ptr %12, align 8, !tbaa !17
  br label %133, !llvm.loop !21

184:                                              ; preds = %140
  %185 = getelementptr inbounds [10 x i8], ptr %14, i64 0, i64 0
  %186 = getelementptr inbounds [10 x i8], ptr %15, i64 0, i64 0
  %187 = load i32, ptr %16, align 4, !tbaa !9
  %188 = sext i32 %187 to i64
  %189 = call i32 @test_mem_eq(ptr noundef @.str.14, i32 noundef 377, ptr noundef @.str.27, ptr noundef @.str.28, ptr noundef %185, i64 noundef 10, ptr noundef %186, i64 noundef %188)
  %190 = icmp ne i32 %189, 0
  br i1 %190, label %192, label %191

191:                                              ; preds = %184
  store i32 2, ptr %18, align 4
  br label %193

192:                                              ; preds = %184
  store i32 0, ptr %18, align 4
  br label %193

193:                                              ; preds = %191, %131, %192, %177, %119
  call void @llvm.lifetime.end.p0(i64 4, ptr %16) #6
  %194 = load i32, ptr %18, align 4
  switch i32 %194, label %208 [
    i32 0, label %195
    i32 2, label %202
  ]

195:                                              ; preds = %193
  br label %196

196:                                              ; preds = %195
  %197 = load i64, ptr %13, align 8, !tbaa !17
  %198 = add i64 %197, 1
  store i64 %198, ptr %13, align 8, !tbaa !17
  br label %71, !llvm.loop !22

199:                                              ; preds = %71
  %200 = load ptr, ptr %7, align 8, !tbaa !13
  call void @SSL_free(ptr noundef %200)
  %201 = load ptr, ptr %6, align 8, !tbaa !13
  call void @SSL_free(ptr noundef %201)
  store ptr null, ptr %6, align 8, !tbaa !13
  store ptr null, ptr %7, align 8, !tbaa !13
  store i32 1, ptr %10, align 4, !tbaa !9
  br label %202

202:                                              ; preds = %199, %193, %69, %46, %29
  %203 = load ptr, ptr %7, align 8, !tbaa !13
  call void @SSL_free(ptr noundef %203)
  %204 = load ptr, ptr %6, align 8, !tbaa !13
  call void @SSL_free(ptr noundef %204)
  %205 = load ptr, ptr %5, align 8, !tbaa !11
  call void @SSL_CTX_free(ptr noundef %205)
  %206 = load ptr, ptr %4, align 8, !tbaa !11
  call void @SSL_CTX_free(ptr noundef %206)
  %207 = load i32, ptr %10, align 4, !tbaa !9
  store i32 %207, ptr %2, align 4
  store i32 1, ptr %18, align 4
  br label %208

208:                                              ; preds = %202, %193
  call void @llvm.lifetime.end.p0(i64 10, ptr %15) #6
  call void @llvm.lifetime.end.p0(i64 10, ptr %14) #6
  call void @llvm.lifetime.end.p0(i64 8, ptr %13) #6
  call void @llvm.lifetime.end.p0(i64 8, ptr %12) #6
  call void @llvm.lifetime.end.p0(i64 4, ptr %11) #6
  call void @llvm.lifetime.end.p0(i64 4, ptr %10) #6
  call void @llvm.lifetime.end.p0(i64 8, ptr %9) #6
  call void @llvm.lifetime.end.p0(i64 8, ptr %8) #6
  call void @llvm.lifetime.end.p0(i64 8, ptr %7) #6
  call void @llvm.lifetime.end.p0(i64 8, ptr %6) #6
  call void @llvm.lifetime.end.p0(i64 8, ptr %5) #6
  call void @llvm.lifetime.end.p0(i64 8, ptr %4) #6
  %209 = load i32, ptr %2, align 4
  ret i32 %209
}