; Function Attrs: nounwind uwtable
define internal range(i32 0, 2) i32 @test_asyncio(i32 noundef %0) #1 {
  %2 = alloca ptr, align 8
  %3 = alloca ptr, align 8
  %4 = alloca ptr, align 8
  %5 = alloca ptr, align 8
  %6 = alloca [10 x i8], align 1
  %7 = alloca [10 x i8], align 1
  call void @llvm.lifetime.start.p0(i64 8, ptr nonnull %2) #6
  store ptr null, ptr %2, align 8, !tbaa !9
  call void @llvm.lifetime.start.p0(i64 8, ptr nonnull %3) #6
  store ptr null, ptr %3, align 8, !tbaa !9
  call void @llvm.lifetime.start.p0(i64 8, ptr nonnull %4) #6
  store ptr null, ptr %4, align 8, !tbaa !11
  call void @llvm.lifetime.start.p0(i64 8, ptr nonnull %5) #6
  store ptr null, ptr %5, align 8, !tbaa !11
  call void @llvm.lifetime.start.p0(i64 10, ptr nonnull %6) #6
  call void @llvm.memcpy.p0.p0.i64(ptr noundef nonnull align 1 dereferenceable(10) %6, ptr noundef nonnull align 1 dereferenceable(10) @__const.test_asyncio.testdata, i64 10, i1 false)
  call void @llvm.lifetime.start.p0(i64 10, ptr nonnull %7) #6
  %8 = tail call ptr @TLS_server_method() #6
  %9 = tail call ptr @TLS_client_method() #6
  %10 = load ptr, ptr @cert, align 8, !tbaa !4
  %11 = load ptr, ptr @privkey, align 8, !tbaa !4
  %12 = call i32 @create_ssl_ctx_pair(ptr noundef null, ptr noundef %8, ptr noundef %9, i32 noundef 769, i32 noundef 0, ptr noundef nonnull %2, ptr noundef nonnull %3, ptr noundef %10, ptr noundef %11) #6
  %13 = icmp ne i32 %12, 0
  %14 = zext i1 %13 to i32
  %15 = call i32 @test_true(ptr noundef nonnull @.str.14, i32 noundef 302, ptr noundef nonnull @.str.19, i32 noundef %14) #6
  %.not = icmp eq i32 %15, 0
  br i1 %.not, label %.thread, label %16

16:                                               ; preds = %1
  %17 = icmp eq i32 %0, 1
  br i1 %17, label %18, label %19

18:                                               ; preds = %16
  store i1 true, ptr @fragment, align 4
  br label %19

19:                                               ; preds = %18, %16
  %20 = call fastcc ptr @bio_f_async_filter()
  %21 = call ptr @BIO_new(ptr noundef %20) #6
  %22 = call fastcc ptr @bio_f_async_filter()
  %23 = call ptr @BIO_new(ptr noundef %22) #6
  %24 = call i32 @test_ptr(ptr noundef nonnull @.str.14, i32 noundef 317, ptr noundef nonnull @.str.20, ptr noundef %21) #6
  %.not52 = icmp eq i32 %24, 0
  br i1 %.not52, label %27, label %25

25:                                               ; preds = %19
  %26 = call i32 @test_ptr(ptr noundef nonnull @.str.14, i32 noundef 318, ptr noundef nonnull @.str.21, ptr noundef %23) #6
  %.not53 = icmp eq i32 %26, 0
  br i1 %.not53, label %27, label %30

27:                                               ; preds = %25, %19
  %28 = call i32 @BIO_free(ptr noundef %21) #6
  %29 = call i32 @BIO_free(ptr noundef %23) #6
  br label %.thread

30:                                               ; preds = %25
  %31 = load ptr, ptr %2, align 8, !tbaa !9
  %32 = load ptr, ptr %3, align 8, !tbaa !9
  %33 = call i32 @create_ssl_objects(ptr noundef %31, ptr noundef %32, ptr noundef nonnull %4, ptr noundef nonnull %5, ptr noundef %21, ptr noundef %23) #6
  %34 = icmp ne i32 %33, 0
  %35 = zext i1 %34 to i32
  %36 = call i32 @test_true(ptr noundef nonnull @.str.14, i32 noundef 326, ptr noundef nonnull @.str.22, i32 noundef %35) #6
  %.not54 = icmp eq i32 %36, 0
  br i1 %.not54, label %.thread, label %37

37:                                               ; preds = %30
  %38 = load ptr, ptr %4, align 8, !tbaa !11
  %39 = load ptr, ptr %5, align 8, !tbaa !11
  %40 = call i32 @create_ssl_connection(ptr noundef %38, ptr noundef %39, i32 noundef 0) #6
  %41 = icmp ne i32 %40, 0
  %42 = zext i1 %41 to i32
  %43 = call i32 @test_true(ptr noundef nonnull @.str.14, i32 noundef 328, ptr noundef nonnull @.str.23, i32 noundef %42) #6
  %.not55 = icmp eq i32 %43, 0
  br i1 %.not55, label %.thread, label %.preheader68

44:                                               ; preds = %.thread65
  br i1 %45, label %.preheader68, label %91, !llvm.loop !13

.preheader68:                                     ; preds = %37, %44
  %45 = phi i1 [ false, %44 ], [ true, %37 ]
  br label %46

46:                                               ; preds = %.preheader68, %63
  %47 = phi i64 [ 0, %.preheader68 ], [ %64, %63 ]
  %.03976 = phi i32 [ 0, %.preheader68 ], [ %.140, %63 ]
  %48 = phi i1 [ true, %.preheader68 ], [ false, %63 ]
  %49 = load ptr, ptr %5, align 8, !tbaa !11
  %50 = getelementptr inbounds nuw i8, ptr %6, i64 %47
  %51 = sub i32 10, %.03976
  %52 = call i32 @SSL_write(ptr noundef %49, ptr noundef nonnull %50, i32 noundef %51) #6
  %53 = icmp sgt i32 %52, 0
  br i1 %53, label %54, label %56

54:                                               ; preds = %46
  %55 = add nuw nsw i32 %52, %.03976
  br label %63

56:                                               ; preds = %46
  %57 = load ptr, ptr %5, align 8, !tbaa !11
  %58 = call i32 @SSL_get_error(ptr noundef %57, i32 noundef %52) #6
  %59 = and i32 %58, -5
  %60 = icmp eq i32 %59, 1
  %61 = zext i1 %60 to i32
  %62 = call i32 @test_false(ptr noundef nonnull @.str.14, i32 noundef 352, ptr noundef nonnull @.str.24, i32 noundef %61) #6
  %.not59.not = icmp eq i32 %62, 0
  br i1 %.not59.not, label %.thread, label %63

63:                                               ; preds = %54, %56
  %.140 = phi i32 [ %55, %54 ], [ %.03976, %56 ]
  %64 = zext nneg i32 %.140 to i64
  %65 = icmp ne i32 %.140, 10
  %66 = and i1 %65, %48
  br i1 %66, label %46, label %67, !llvm.loop !15

67:                                               ; preds = %63
  %68 = call i32 @test_size_t_eq(ptr noundef nonnull @.str.14, i32 noundef 356, ptr noundef nonnull @.str.25, ptr noundef nonnull @.str.26, i64 noundef %64, i64 noundef 10) #6
  %.not56 = icmp eq i32 %68, 0
  br i1 %.not56, label %.thread, label %.preheader

.preheader:                                       ; preds = %67, %84
  %69 = phi i64 [ %86, %84 ], [ 0, %67 ]
  %.24178 = phi i32 [ %.3, %84 ], [ 0, %67 ]
  %.14477 = phi i64 [ %85, %84 ], [ 0, %67 ]
  %70 = load ptr, ptr %4, align 8, !tbaa !11
  %71 = getelementptr inbounds nuw i8, ptr %7, i64 %69
  %72 = sub i32 10, %.24178
  %73 = call i32 @SSL_read(ptr noundef %70, ptr noundef nonnull %71, i32 noundef %72) #6
  %74 = icmp sgt i32 %73, 0
  br i1 %74, label %75, label %77

75:                                               ; preds = %.preheader
  %76 = add nuw nsw i32 %73, %.24178
  br label %84

77:                                               ; preds = %.preheader
  %78 = load ptr, ptr %4, align 8, !tbaa !11
  %79 = call i32 @SSL_get_error(ptr noundef %78, i32 noundef %73) #6
  %80 = and i32 %79, -5
  %81 = icmp eq i32 %80, 1
  %82 = zext i1 %81 to i32
  %83 = call i32 @test_false(ptr noundef nonnull @.str.14, i32 noundef 373, ptr noundef nonnull @.str.24, i32 noundef %82) #6
  %.not58.not = icmp eq i32 %83, 0
  br i1 %.not58.not, label %.thread, label %84

84:                                               ; preds = %75, %77
  %.3 = phi i32 [ %76, %75 ], [ %.24178, %77 ]
  %85 = add nuw nsw i64 %.14477, 1
  %86 = zext nneg i32 %.3 to i64
  %87 = icmp ne i32 %.3, 10
  %88 = icmp samesign ult i64 %.14477, 99
  %89 = select i1 %87, i1 %88, i1 false
  br i1 %89, label %.preheader, label %.thread65, !llvm.loop !16

.thread65:                                        ; preds = %84
  %90 = call i32 @test_mem_eq(ptr noundef nonnull @.str.14, i32 noundef 377, ptr noundef nonnull @.str.27, ptr noundef nonnull @.str.28, ptr noundef nonnull %6, i64 noundef 10, ptr noundef nonnull %7, i64 noundef %86) #6
  %.not57 = icmp eq i32 %90, 0
  br i1 %.not57, label %.thread, label %44

91:                                               ; preds = %44
  %92 = load ptr, ptr %5, align 8, !tbaa !11
  call void @SSL_free(ptr noundef %92) #6
  %93 = load ptr, ptr %4, align 8, !tbaa !11
  call void @SSL_free(ptr noundef %93) #6
  store ptr null, ptr %4, align 8, !tbaa !11
  store ptr null, ptr %5, align 8, !tbaa !11
  br label %.thread

.thread:                                          ; preds = %.thread65, %67, %56, %77, %30, %37, %1, %91, %27
  %.045 = phi i32 [ 1, %91 ], [ 0, %37 ], [ 0, %30 ], [ 0, %27 ], [ 0, %1 ], [ 0, %77 ], [ 0, %56 ], [ 0, %67 ], [ 0, %.thread65 ]
  %94 = load ptr, ptr %5, align 8, !tbaa !11
  call void @SSL_free(ptr noundef %94) #6
  %95 = load ptr, ptr %4, align 8, !tbaa !11
  call void @SSL_free(ptr noundef %95) #6
  %96 = load ptr, ptr %3, align 8, !tbaa !9
  call void @SSL_CTX_free(ptr noundef %96) #6
  %97 = load ptr, ptr %2, align 8, !tbaa !9
  call void @SSL_CTX_free(ptr noundef %97) #6
  call void @llvm.lifetime.end.p0(i64 10, ptr nonnull %7) #6
  call void @llvm.lifetime.end.p0(i64 10, ptr nonnull %6) #6
  call void @llvm.lifetime.end.p0(i64 8, ptr nonnull %5) #6
  call void @llvm.lifetime.end.p0(i64 8, ptr nonnull %4) #6
  call void @llvm.lifetime.end.p0(i64 8, ptr nonnull %3) #6
  call void @llvm.lifetime.end.p0(i64 8, ptr nonnull %2) #6
  ret i32 %.045
}